
    =========================== USB Port7 ===========================

Connection Status        : 0x01 (Device is connected)
Port Chain               : 1-1-7
Properties               : 0x00
 IsUserConnectable       : no
 PortIsDebugCapable      : no
 PortHasMultiCompanions  : no
 PortConnectorIsTypeC    : no
ConnectionIndex          : 0x07 (Port 7)

      ========================== Summary =========================
Vendor ID                : 0x1C4F (Beijing Sigmachip Co., Ltd.)
Product ID               : 0x0002
Manufacturer String      : "SIGMACHIP"
Product String           : "USB Keyboard"
Serial                   : ---
USB Version              : 1.1 (1.5 Mbit/s LowSpeed)
Port maximum Speed       : High-Speed
Device maximum Speed     : Low-Speed
Device Connection Speed  : Low-Speed
Self powered             : no
Demanded Current         : 98 mA
Used Endpoints           : 3

      ======================== USB Device ========================

        +++++++++++++++++ Device Information ++++++++++++++++++
Device Description       : Составное USB устройство
Device Path              : \\?\USB#VID_1C4F&PID_0002#6&3b2bb537&0&7#{a5dcbf10-6530-11d2-901f-00c04fb951ed} (GUID_DEVINTERFACE_USB_DEVICE)
Kernel Name              : \Device\USBPDO-5
Device ID                : USB\VID_1C4F&PID_0002\6&3B2BB537&0&7
Hardware IDs             : USB\VID_1C4F&PID_0002&REV_0110 USB\VID_1C4F&PID_0002
Driver KeyName           : {36fc9e60-c465-11cf-8056-444553540000}\0008 (GUID_DEVCLASS_USB)
Driver                   : \SystemRoot\System32\drivers\usbccgp.sys (Version: 10.0.19041.6456  Date: 2025-10-18  Company: Microsoft Corporation)
Driver Inf               : C:\WINDOWS\inf\usb.inf
Legacy BusType           : PNPBus
Class                    : USB
Class GUID               : {36fc9e60-c465-11cf-8056-444553540000} (GUID_DEVCLASS_USB)
Service                  : usbccgp
Enumerator               : USB
Location Info            : Port_#0007.Hub_#0005
Address                  : 7
Location IDs             : PCIROOT(0)#PCI(1D00)#USBROOT(0)#USB(1)#USB(7), ACPI(_SB_)#ACPI(PCI0)#ACPI(EHC1)#ACPI(HUBN)#ACPI(PR01)#ACPI(PR17)
Container ID             : {82821b17-a79b-11f0-860f-806e6f6e6963}
Manufacturer Info        : (Стандартный USB хост-контроллер)
Capabilities             : 0x84 (Removable, SurpriseRemovalOK)
Status                   : 0x0180400A (DN_DRIVER_LOADED, DN_STARTED, DN_REMOVABLE, DN_NT_ENUMERATOR, DN_NT_DRIVER)
First Install Date       : 2025-10-12 21:44:49
Last Arrival Date        : 2025-10-21 23:37:42
Bus Relations            : USB\VID_1C4F&PID_0002&MI_00\7&ce232c6&0&0000, USB\VID_1C4F&PID_0002&MI_01\7&ce232c6&0&0001
EnhancedPowerMgmtEnabled : 0
Power State              : D0 (supported: D0, D1, D2, D3, wake from D0, wake from D1, wake from D2)

        ---------------- Connection Information ---------------
Connection Index         : 0x07 (Port 7)
Connection Status        : 0x01 (DeviceConnected)
Current Config Value     : 0x01 (Configuration 1)
Device Address           : 0x02 (2)
Is Hub                   : 0x00 (no)
Device Bus Speed         : 0x00 (Low-Speed)
Number of open Pipes     : 0x02 (2 pipes to data endpoints)
Pipe[0]                  : EndpointID=1  Direction=IN   ScheduleOffset=0  Type=Interrupt  wMaxPacketSize=0x8     bInterval=10  -> 196 Bits/ms = 24500 Bytes/s
Pipe[1]                  : EndpointID=2  Direction=IN   ScheduleOffset=1  Type=Interrupt  wMaxPacketSize=0x3     bInterval=10  -> 149 Bits/ms = 18625 Bytes/s
Data (HexDump)           : 07 00 00 00 12 01 10 01 00 00 00 08 4F 1C 02 00   ............O...
                           10 01 01 02 00 01 01 00 00 02 00 02 00 00 00 01   ................
                           00 00 00 07 05 81 03 08 00 0A 00 00 00 00 07 05   ................
                           82 03 03 00 0A 01 00 00 00                        .........

        --------------- Connection Information V2 -------------
Connection Index         : 0x07 (7)
Length                   : 0x10 (16 bytes)
SupportedUsbProtocols    : 0x03
 Usb110                  : 1 (yes, port supports USB 1.1)
 Usb200                  : 1 (yes, port supports USB 2.0)
 Usb300                  : 0 (no, port not supports USB 3.0)
 ReservedMBZ             : 0x00
Flags                    : 0x00
 DevIsOpAtSsOrHigher     : 0 (Device is not operating at SuperSpeed or higher)
 DevIsSsCapOrHigher      : 0 (Device is not SuperSpeed capable or higher)
 DevIsOpAtSsPlusOrHigher : 0 (Device is not operating at SuperSpeedPlus or higher)
 DevIsSsPlusCapOrHigher  : 0 (Device is not SuperSpeedPlus capable or higher)
 ReservedMBZ             : 0x00
Data (HexDump)           : 07 00 00 00 10 00 00 00 03 00 00 00 00 00 00 00   ................

    ---------------------- Device Descriptor ----------------------
bLength                  : 0x12 (18 bytes)
bDescriptorType          : 0x01 (Device Descriptor)
bcdUSB                   : 0x110 (USB Version 1.1)
bDeviceClass             : 0x00 (defined by the interface descriptors)
bDeviceSubClass          : 0x00
bDeviceProtocol          : 0x00
bMaxPacketSize0          : 0x08 (8 bytes)
idVendor                 : 0x1C4F (Beijing Sigmachip Co., Ltd.)
idProduct                : 0x0002
bcdDevice                : 0x0110
iManufacturer            : 0x01 (String Descriptor 1)
 Language 0x0409         : "SIGMACHIP"
iProduct                 : 0x02 (String Descriptor 2)
 Language 0x0409         : "USB Keyboard"
iSerialNumber            : 0x00 (No String Descriptor)
bNumConfigurations       : 0x01 (1 Configuration)
Data (HexDump)           : 12 01 10 01 00 00 00 08 4F 1C 02 00 10 01 01 02   ........O.......
                           00 01                                             ..

    ------------------ Configuration Descriptor -------------------
bLength                  : 0x09 (9 bytes)
bDescriptorType          : 0x02 (Configuration Descriptor)
wTotalLength             : 0x003B (59 bytes)
bNumInterfaces           : 0x02 (2 Interfaces)
bConfigurationValue      : 0x01 (Configuration 1)
iConfiguration           : 0x00 (No String Descriptor)
bmAttributes             : 0xA0
 D7: Reserved, set 1     : 0x01
 D6: Self Powered        : 0x00 (no)
 D5: Remote Wakeup       : 0x01 (yes)
 D4..0: Reserved, set 0  : 0x00
MaxPower                 : 0x31 (98 mA)
Data (HexDump)           : 09 02 3B 00 02 01 00 A0 31 09 04 00 00 01 03 01   ..;.....1.......
                           01 00 09 21 10 01 00 01 22 36 00 07 05 81 03 08   ...!...."6......
                           00 0A 09 04 01 00 01 03 00 00 00 09 21 10 01 00   ............!...
                           01 22 32 00 07 05 82 03 03 00 0A                  ."2........

        ---------------- Interface Descriptor -----------------
bLength                  : 0x09 (9 bytes)
bDescriptorType          : 0x04 (Interface Descriptor)
bInterfaceNumber         : 0x00 (Interface 0)
bAlternateSetting        : 0x00
bNumEndpoints            : 0x01 (1 Endpoint)
bInterfaceClass          : 0x03 (HID - Human Interface Device)
bInterfaceSubClass       : 0x01 (Boot Interface)
bInterfaceProtocol       : 0x01 (Keyboard)
iInterface               : 0x00 (No String Descriptor)
Data (HexDump)           : 09 04 00 00 01 03 01 01 00                        .........

        ------------------- HID Descriptor --------------------
bLength                  : 0x09 (9 bytes)
bDescriptorType          : 0x21 (HID Descriptor)
bcdHID                   : 0x0110 (HID Version 1.10)
bCountryCode             : 0x00 (00 = not localized)
bNumDescriptors          : 0x01
Data (HexDump)           : 09 21 10 01 00 01 22 36 00                        .!...."6.
Descriptor 1:
bDescriptorType          : 0x22 (Class=Report)
wDescriptorLength        : 0x0036 (54 bytes)
  09 02             Usage (unk)
  3B 00 02 01 00    Designator Index (66048)
  A0                Collection (Physical)
  31 09               unk
  04                  Usage Page (Undefined)
  00                  unk
  00                  unk
  01 03               unk
  01 01               unk
  00                  unk
  09 21               Usage (unk)
  10                  unk
  01 00               unk
  01 22               unk
  36 00 07            Physical Minimum (1792)
  05 81               Usage Page (USB Monitor Enumerated Values)
  03 08 00 0A 09      unk
  04                  Usage Page (Undefined)
  01 00               unk
  01 03               unk
  00                  unk
  00                  unk
  00                  unk
  09 21               Usage (unk)
  10                  unk
  01 00               unk
  01 22               unk
  32 00 07            unk
  05                  Usage Page (Undefined)
Data (HexDump)           : 09 02 3B 00 02 01 00 A0 31 09 04 00 00 01 03 01   ..;.....1.......
                           01 00 09 21 10 01 00 01 22 36 00 07 05 81 03 08   ...!...."6......
                           00 0A 09 04 01 00 01 03 00 00 00 09 21 10 01 00   ............!...
                           01 22 32 00 07 05                                 ."2...

        ----------------- Endpoint Descriptor -----------------
bLength                  : 0x07 (7 bytes)
bDescriptorType          : 0x05 (Endpoint Descriptor)
bEndpointAddress         : 0x81 (Direction=IN EndpointID=1)
bmAttributes             : 0x03 (TransferType=Interrupt)
wMaxPacketSize           : 0x0008
bInterval                : 0x0A (10 ms)
Data (HexDump)           : 07 05 81 03 08 00 0A                              .......

        ---------------- Interface Descriptor -----------------
bLength                  : 0x09 (9 bytes)
bDescriptorType          : 0x04 (Interface Descriptor)
bInterfaceNumber         : 0x01 (Interface 1)
bAlternateSetting        : 0x00
bNumEndpoints            : 0x01 (1 Endpoint)
bInterfaceClass          : 0x03 (HID - Human Interface Device)
bInterfaceSubClass       : 0x00 (None)
bInterfaceProtocol       : 0x00 (None)
iInterface               : 0x00 (No String Descriptor)
Data (HexDump)           : 09 04 01 00 01 03 00 00 00                        .........

        ------------------- HID Descriptor --------------------
bLength                  : 0x09 (9 bytes)
bDescriptorType          : 0x21 (HID Descriptor)
bcdHID                   : 0x0110 (HID Version 1.10)
bCountryCode             : 0x00 (00 = not localized)
bNumDescriptors          : 0x01
Data (HexDump)           : 09 21 10 01 00 01 22 32 00                        .!...."2.
Descriptor 1:
bDescriptorType          : 0x22 (Class=Report)
wDescriptorLength        : 0x0032 (50 bytes)
  09 02             Usage (unk)
  3B 00 02 01 00    Designator Index (66048)
  A0                Collection (Physical)
  31 09               unk
  04                  Usage Page (Undefined)
  00                  unk
  00                  unk
  01 03               unk
  01 01               unk
  00                  unk
  09 21               Usage (unk)
  10                  unk
  01 00               unk
  01 22               unk
  36 00 07            Physical Minimum (1792)
  05 81               Usage Page (USB Monitor Enumerated Values)
  03 08 00 0A 09      unk
  04                  Usage Page (Undefined)
  01 00               unk
  01 03               unk
  00                  unk
  00                  unk
  00                  unk
  09 21               Usage (unk)
  10                  unk
  01 00               unk
  01 22               unk
Data (HexDump)           : 09 02 3B 00 02 01 00 A0 31 09 04 00 00 01 03 01   ..;.....1.......
                           01 00 09 21 10 01 00 01 22 36 00 07 05 81 03 08   ...!...."6......
                           00 0A 09 04 01 00 01 03 00 00 00 09 21 10 01 00   ............!...
                           01 22                                             ."

        ----------------- Endpoint Descriptor -----------------
bLength                  : 0x07 (7 bytes)
bDescriptorType          : 0x05 (Endpoint Descriptor)
bEndpointAddress         : 0x82 (Direction=IN EndpointID=2)
bmAttributes             : 0x03 (TransferType=Interrupt)
wMaxPacketSize           : 0x0003
bInterval                : 0x0A (10 ms)
Data (HexDump)           : 07 05 82 03 03 00 0A                              .......

      -------------------- String Descriptors -------------------
             ------ String Descriptor 0 ------
bLength                  : 0x04 (4 bytes)
bDescriptorType          : 0x03 (String Descriptor)
Language ID[0]           : 0x0409 (English - United States)
Data (HexDump)           : 04 03 09 04                                       ....
             ------ String Descriptor 1 ------
bLength                  : 0x14 (20 bytes)
bDescriptorType          : 0x03 (String Descriptor)
Language 0x0409          : "SIGMACHIP"
Data (HexDump)           : 14 03 53 00 49 00 47 00 4D 00 41 00 43 00 48 00   ..S.I.G.M.A.C.H.
                           49 00 50 00                                       I.P.
             ------ String Descriptor 2 ------
bLength                  : 0x1A (26 bytes)
bDescriptorType          : 0x03 (String Descriptor)
Language 0x0409          : "USB Keyboard"
Data (HexDump)           : 1A 03 55 00 53 00 42 00 20 00 4B 00 65 00 79 00   ..U.S.B. .K.e.y.
                           62 00 6F 00 61 00 72 00 64 00                     b.o.a.r.d.
